; Function Attrs: mustprogress uwtable
define void @_ZNK2cv3dnn14dnn4_v202412233Net13getLayerNamesB5cxx11Ev(ptr dead_on_unwind noalias writable sret(%"class.std::vector.53") align 8 %0, ptr noundef nonnull readonly align 8 captures(none) dereferenceable(16) %1) local_unnamed_addr #3 align 2 personality ptr @__gxx_personality_v0 {
  %3 = alloca %"class.std::__cxx11::basic_string", align 8
  %4 = alloca %"class.std::allocator", align 1
  %5 = load ptr, ptr %1, align 8, !tbaa !17
  %.not = icmp eq ptr %5, null
  br i1 %.not, label %6, label %16

6:                                                ; preds = %2
  call void @llvm.lifetime.start.p0(i64 32, ptr nonnull %3) #21
  call void @llvm.lifetime.start.p0(i64 1, ptr nonnull %4) #21
  call void @_ZNSt7__cxx1112basic_stringIcSt11char_traitsIcESaIcEEC2EPKcRKS3_(ptr noundef nonnull align 8 dereferenceable(32) %3, ptr noundef nonnull @.str.2, ptr noundef nonnull align 1 dereferenceable(1) %4)
  invoke void @_ZN2cv5errorEiRKNSt7__cxx1112basic_stringIcSt11char_traitsIcESaIcEEEPKcS9_i(i32 noundef -215, ptr noundef nonnull align 8 dereferenceable(32) %3, ptr noundef nonnull @__func__._ZNK2cv3dnn14dnn4_v202412233Net13getLayerNamesB5cxx11Ev, ptr noundef nonnull @.str.1, i32 noundef 248) #22
          to label %7 unwind label %8

7:                                                ; preds = %6
  unreachable

8:                                                ; preds = %6
  %9 = landingpad { ptr, i32 }
          cleanup
  %10 = load ptr, ptr %3, align 8, !tbaa !27
  %11 = getelementptr inbounds nuw i8, ptr %3, i64 16
  %12 = icmp eq ptr %10, %11
  br i1 %12, label %_ZNKSt7__cxx1112basic_stringIcSt11char_traitsIcESaIcEE11_M_is_localEv.exit.thread.i.i, label %_ZNKSt7__cxx1112basic_stringIcSt11char_traitsIcESaIcEE11_M_is_localEv.exit.i.i

_ZNKSt7__cxx1112basic_stringIcSt11char_traitsIcESaIcEE11_M_is_localEv.exit.thread.i.i: ; preds = %8
  %13 = getelementptr inbounds nuw i8, ptr %3, i64 8
  %14 = load i64, ptr %13, align 8, !tbaa !32
  %15 = icmp ult i64 %14, 16
  call void @llvm.assume(i1 %15)
  br label %_ZNSt7__cxx1112basic_stringIcSt11char_traitsIcESaIcEED2Ev.exit

_ZNKSt7__cxx1112basic_stringIcSt11char_traitsIcESaIcEE11_M_is_localEv.exit.i.i: ; preds = %8
  call void @_ZdlPv(ptr noundef %10) #20
  br label %_ZNSt7__cxx1112basic_stringIcSt11char_traitsIcESaIcEED2Ev.exit

_ZNSt7__cxx1112basic_stringIcSt11char_traitsIcESaIcEED2Ev.exit: ; preds = %_ZNKSt7__cxx1112basic_stringIcSt11char_traitsIcESaIcEE11_M_is_localEv.exit.i.i, %_ZNKSt7__cxx1112basic_stringIcSt11char_traitsIcESaIcEE11_M_is_localEv.exit.thread.i.i
  call void @llvm.lifetime.end.p0(i64 1, ptr nonnull %4) #21
  call void @llvm.lifetime.end.p0(i64 32, ptr nonnull %3) #21
  resume { ptr, i32 } %9

16:                                               ; preds = %2
  tail call void @_ZNK2cv3dnn14dnn4_v202412233Net4Impl13getLayerNamesB5cxx11Ev(ptr dead_on_unwind writable sret(%"class.std::vector.53") align 8 %0, ptr noundef nonnull align 8 dereferenceable(504) %5)
  ret void
}